Certificate:
    Data:
        Version: 3 (0x2)
        Serial Number:
            44:b1:fa:2d:bf:a3:c5:e7:76:aa:83:25:33:95:01:87:9b:76:c6:fe
        Signature Algorithm: sha256WithRSAEncryption
        Issuer: CN=db1
        Validity
            Not Before: Nov 12 20:26:26 2025 GMT
            Not After : Nov 12 20:26:26 2026 GMT
        Subject: CN=db1
        Subject Public Key Info:
            Public Key Algorithm: rsaEncryption
                Public-Key: (2048 bit)
                Modulus:
                    00:b0:33:3a:64:d2:21:ac:a6:c3:d2:80:52:eb:83:
                    84:c0:ac:a5:92:d2:e8:aa:e7:25:39:2d:af:6c:a8:
                    46:3d:f2:43:19:7f:da:32:1d:17:f4:da:62:5c:37:
                    62:a5:ee:6c:58:1f:c6:82:ef:c3:66:00:00:e2:54:
                    82:f5:32:8f:f8:c5:ab:fe:0e:19:18:df:6f:8e:c0:
                    fb:57:17:b8:69:ce:39:f6:62:b5:57:50:83:a5:2c:
                    cf:d2:ab:f5:d4:66:34:77:cb:c6:a5:96:6c:7a:d0:
                    68:f4:94:87:71:1e:b2:33:dd:e6:11:4f:77:cc:89:
                    33:26:51:2c:af:b3:ed:19:74:8a:19:d0:40:3a:fa:
                    b2:a5:21:82:f2:6b:51:b1:17:29:1e:58:b7:ef:07:
                    78:22:7b:4b:b2:e3:02:bb:ce:ac:e0:ee:37:e9:7e:
                    32:8e:e7:75:95:c9:f3:b4:6f:c4:97:c9:1e:33:e1:
                    62:b8:5d:fe:7c:89:ef:7c:1d:59:5d:9a:b2:64:30:
                    15:b2:61:91:0d:8e:20:b3:8e:55:f3:7a:fd:37:79:
                    48:e0:86:e9:a2:5c:8d:cb:80:5f:a1:19:d2:d5:08:
                    24:84:4f:4c:0c:b4:c9:96:e2:7d:b5:92:1d:4d:54:
                    54:f7:8d:b9:a1:14:f5:7e:0a:6a:f1:98:01:73:b4:
                    f5:39
                Exponent: 65537 (0x10001)
        X509v3 extensions:
            X509v3 Subject Key Identifier: 
                37:DC:4A:75:B4:DD:6C:2C:BC:8A:77:B8:E6:94:87:10:B0:B3:71:2A
            X509v3 Authority Key Identifier: 
                37:DC:4A:75:B4:DD:6C:2C:BC:8A:77:B8:E6:94:87:10:B0:B3:71:2A
            X509v3 Basic Constraints: critical
                CA:TRUE
    Signature Algorithm: sha256WithRSAEncryption
    Signature Value:
        3f:ca:a0:0f:5e:18:2f:9f:11:55:6f:95:16:6a:32:6d:c8:dd:
        78:b7:50:b2:c9:31:05:da:7e:c5:ca:0d:2b:64:b2:4d:b4:e1:
        3e:97:a5:13:5d:43:ed:42:b0:43:4c:1b:fc:83:1f:30:be:35:
        7f:e0:a8:48:92:98:bb:bf:5c:5c:ee:db:85:d8:42:90:0f:86:
        2e:3f:88:82:ef:62:d8:67:69:bb:11:28:99:6a:f9:61:14:3d:
        eb:75:0e:46:18:dc:c1:8f:67:3d:3e:93:f7:5f:17:99:6e:7f:
        51:6c:c8:ce:bd:42:e8:55:a3:80:e7:b5:44:25:80:ef:96:1a:
        6d:80:e4:d5:d5:b4:0e:64:17:ac:04:e1:f9:92:74:37:93:e1:
        6e:c2:42:3e:4f:dd:31:ae:18:9d:00:0f:29:22:e9:e5:06:a4:
        81:95:0c:d9:a7:9a:22:02:95:ed:9a:b6:26:c0:d9:07:0a:d8:
        c7:ee:b1:5e:a6:ed:60:35:99:52:92:72:32:fd:4a:d1:35:92:
        fe:32:0b:97:b6:ab:11:63:36:43:70:e5:17:2f:ed:56:ae:a0:
        b7:19:7b:34:e9:ff:77:8c:ae:b0:0e:2d:40:1e:33:46:5e:42:
        82:95:ed:bc:fb:50:a2:99:74:2a:eb:11:a3:20:95:34:7d:b2:
        6b:bb:3a:b7
-----BEGIN CERTIFICATE-----
MIIC/TCCAeWgAwIBAgIURLH6Lb+jxed2qoMlM5UBh5t2xv4wDQYJKoZIhvcNAQEL
BQAwDjEMMAoGA1UEAwwDZGIxMB4XDTI1MTExMjIwMjYyNloXDTI2MTExMjIwMjYy
NlowDjEMMAoGA1UEAwwDZGIxMIIBIjANBgkqhkiG9w0BAQEFAAOCAQ8AMIIBCgKC
AQEAsDM6ZNIhrKbD0oBS64OEwKylktLoquclOS2vbKhGPfJDGX/aMh0X9NpiXDdi
pe5sWB/Ggu/DZgAA4lSC9TKP+MWr/g4ZGN9vjsD7Vxe4ac459mK1V1CDpSzP0qv1
1GY0d8vGpZZsetBo9JSHcR6yM93mEU93zIkzJlEsr7PtGXSKGdBAOvqypSGC8mtR
sRcpHli37wd4IntLsuMCu86s4O436X4yjud1lcnztG/El8keM+FiuF3+fInvfB1Z
XZqyZDAVsmGRDY4gs45V83r9N3lI4IbpolyNy4BfoRnS1QgkhE9MDLTJluJ9tZId
TVRU9425oRT1fgpq8ZgBc7T1OQIDAQABo1MwUTAdBgNVHQ4EFgQUN9xKdbTdbCy8
ine45pSHELCzcSowHwYDVR0jBBgwFoAUN9xKdbTdbCy8ine45pSHELCzcSowDwYD
VR0TAQH/BAUwAwEB/zANBgkqhkiG9w0BAQsFAAOCAQEAP8qgD14YL58RVW+VFmoy
bcjdeLdQsskxBdp+xcoNK2SyTbThPpelE11D7UKwQ0wb/IMfML41f+CoSJKYu79c
XO7bhdhCkA+GLj+Igu9i2GdpuxEomWr5YRQ963UORhjcwY9nPT6T918XmW5/UWzI
zr1C6FWjgOe1RCWA75YabYDk1dW0DmQXrATh+ZJ0N5PhbsJCPk/dMa4YnQAPKSLp
5QakgZUM2aeaIgKV7Zq2JsDZBwrYx+6xXqbtYDWZUpJyMv1K0TWS/jILl7arEWM2
Q3DlFy/tVq6gtxl7NOn/d4yusA4tQB4zRl5CgpXtvPtQopl0KusRoyCVNH2ya7s6
tw==
-----END CERTIFICATE-----
