Certificate:
    Data:
        Version: 3 (0x2)
        Serial Number:
            77:12:ce:61:92:db:d7:f3:84:31:0d:0c:b0:2f:d3:9d:b8:df:b3:03
        Signature Algorithm: sha256WithRSAEncryption
        Issuer: CN=db1
        Validity
            Not Before: Nov 13 16:11:49 2025 GMT
            Not After : Nov 13 16:11:49 2026 GMT
        Subject: CN=db1
        Subject Public Key Info:
            Public Key Algorithm: rsaEncryption
                Public-Key: (2048 bit)
                Modulus:
                    00:b5:32:6d:cd:ab:0c:36:47:58:6e:28:9d:e5:7a:
                    69:a2:8c:ea:14:aa:d1:9e:72:20:d8:99:d6:a6:f6:
                    44:97:e0:a7:d5:bb:25:dd:a1:1f:cb:6e:10:34:90:
                    d7:b8:15:59:7f:75:15:e8:54:cd:3d:ab:56:44:ae:
                    48:30:64:42:36:f2:e0:a3:2e:89:64:6f:d7:a1:35:
                    86:5a:fb:2a:1d:7a:48:5a:1e:b9:75:25:f3:ce:5b:
                    be:05:95:b2:d5:e2:57:4b:fa:eb:92:2f:7e:ac:86:
                    55:1f:02:22:7a:5f:5f:ee:67:b8:68:c6:20:28:f8:
                    47:3f:7c:37:8d:10:bd:b8:4c:20:d4:27:29:44:f3:
                    0d:e7:35:e2:47:b2:ed:d7:7c:b4:f4:30:b2:3e:22:
                    44:0e:af:4f:56:47:c2:98:a2:21:c4:22:f3:21:ea:
                    18:0d:01:7b:1c:19:18:47:39:46:87:64:06:3a:43:
                    9f:25:a1:09:88:f7:48:30:c8:10:99:d1:81:0d:6b:
                    42:b0:21:87:09:79:0a:f6:0f:c9:e4:38:2e:48:0b:
                    1c:1e:c3:d0:ba:65:d9:de:d1:da:0e:3e:45:40:77:
                    70:c5:98:2d:8f:01:fc:5a:b1:60:e0:d1:34:74:8c:
                    f9:f9:02:e0:e6:f8:d3:d5:76:90:3c:ae:5c:e8:b2:
                    9c:dd
                Exponent: 65537 (0x10001)
        X509v3 extensions:
            X509v3 Subject Key Identifier: 
                36:09:E5:5A:DE:98:E3:1E:65:B4:44:AC:8C:7B:57:BB:A5:22:EE:B5
            X509v3 Authority Key Identifier: 
                36:09:E5:5A:DE:98:E3:1E:65:B4:44:AC:8C:7B:57:BB:A5:22:EE:B5
            X509v3 Basic Constraints: critical
                CA:TRUE
    Signature Algorithm: sha256WithRSAEncryption
    Signature Value:
        95:4c:22:5a:c7:27:52:6d:a7:92:f5:f4:7d:34:71:50:7c:e4:
        7a:d3:db:e7:3e:bd:a0:84:a6:11:77:35:c1:00:c9:53:fa:71:
        0f:6e:d5:8e:5b:2f:18:cc:0e:e3:60:6f:be:82:b8:45:35:e8:
        c3:70:5d:6c:fd:dd:98:81:d9:94:e4:ed:71:9e:78:ce:1b:0d:
        2a:35:02:0e:4d:2b:63:6c:32:7b:42:6f:57:7a:bf:23:7f:c7:
        cf:94:00:50:58:7d:00:dc:58:04:2c:d5:b8:05:c2:f5:01:f6:
        15:98:0d:d9:4b:10:42:59:42:7d:19:f0:fe:a0:ee:cb:93:9e:
        a7:92:f9:df:25:ce:e8:94:1c:f2:c9:22:52:5b:8f:cb:c5:f2:
        c1:fd:d9:a0:e8:d6:72:91:30:26:c7:76:72:43:e9:78:ad:d9:
        0e:d4:0a:dd:73:1a:40:97:fd:cf:14:90:f4:02:b7:a8:7f:80:
        9f:3c:74:a6:6f:e9:db:c6:1e:e5:ca:55:60:0c:71:f2:ac:b2:
        de:14:8b:5e:f2:85:d8:e2:81:e4:6c:24:a1:fb:72:33:38:a0:
        ea:48:d7:3d:60:a5:59:d6:b2:21:0d:61:f1:4f:40:85:0d:87:
        d9:9d:cc:f8:c1:6f:7f:eb:d3:33:04:cd:2e:80:99:7f:69:7c:
        fa:aa:53:0a
-----BEGIN CERTIFICATE-----
MIIC/TCCAeWgAwIBAgIUdxLOYZLb1/OEMQ0MsC/TnbjfswMwDQYJKoZIhvcNAQEL
BQAwDjEMMAoGA1UEAwwDZGIxMB4XDTI1MTExMzE2MTE0OVoXDTI2MTExMzE2MTE0
OVowDjEMMAoGA1UEAwwDZGIxMIIBIjANBgkqhkiG9w0BAQEFAAOCAQ8AMIIBCgKC
AQEAtTJtzasMNkdYbiid5XppoozqFKrRnnIg2JnWpvZEl+Cn1bsl3aEfy24QNJDX
uBVZf3UV6FTNPatWRK5IMGRCNvLgoy6JZG/XoTWGWvsqHXpIWh65dSXzzlu+BZWy
1eJXS/rrki9+rIZVHwIiel9f7me4aMYgKPhHP3w3jRC9uEwg1CcpRPMN5zXiR7Lt
13y09DCyPiJEDq9PVkfCmKIhxCLzIeoYDQF7HBkYRzlGh2QGOkOfJaEJiPdIMMgQ
mdGBDWtCsCGHCXkK9g/J5DguSAscHsPQumXZ3tHaDj5FQHdwxZgtjwH8WrFg4NE0
dIz5+QLg5vjT1XaQPK5c6LKc3QIDAQABo1MwUTAdBgNVHQ4EFgQUNgnlWt6Y4x5l
tESsjHtXu6Ui7rUwHwYDVR0jBBgwFoAUNgnlWt6Y4x5ltESsjHtXu6Ui7rUwDwYD
VR0TAQH/BAUwAwEB/zANBgkqhkiG9w0BAQsFAAOCAQEAlUwiWscnUm2nkvX0fTRx
UHzketPb5z69oISmEXc1wQDJU/pxD27VjlsvGMwO42BvvoK4RTXow3BdbP3dmIHZ
lOTtcZ54zhsNKjUCDk0rY2wye0JvV3q/I3/Hz5QAUFh9ANxYBCzVuAXC9QH2FZgN
2UsQQllCfRnw/qDuy5Oep5L53yXO6JQc8skiUluPy8Xywf3ZoOjWcpEwJsd2ckPp
eK3ZDtQK3XMaQJf9zxSQ9AK3qH+Anzx0pm/p28Ye5cpVYAxx8qyy3hSLXvKF2OKB
5GwkoftyMzig6kjXPWClWdayIQ1h8U9AhQ2H2Z3M+MFvf+vTMwTNLoCZf2l8+qpT
Cg==
-----END CERTIFICATE-----
