Certificate:
    Data:
        Version: 3 (0x2)
        Serial Number:
            6e:f7:ea:4e:0f:8f:23:0e:e7:a6:ab:f7:10:c1:9c:17:a7:fe:ae:a8
        Signature Algorithm: sha256WithRSAEncryption
        Issuer: CN=db1
        Validity
            Not Before: Nov 12 20:33:41 2025 GMT
            Not After : Nov 12 20:33:41 2026 GMT
        Subject: CN=db1
        Subject Public Key Info:
            Public Key Algorithm: rsaEncryption
                Public-Key: (2048 bit)
                Modulus:
                    00:9c:69:6b:84:a7:0f:73:bb:41:90:3a:e5:06:2d:
                    33:e0:8f:dc:7c:a1:1c:6b:7a:4c:b5:5d:81:0f:01:
                    45:53:55:ce:cf:55:85:aa:21:a3:38:b8:02:58:ef:
                    0f:5c:a4:eb:9a:0f:59:75:45:01:82:b0:33:f6:df:
                    7d:27:c2:4f:14:46:70:15:4d:8b:b2:9c:d0:85:59:
                    6a:b6:b6:61:d0:b6:53:8f:fb:f1:89:99:ce:ec:80:
                    4c:f5:74:28:6b:55:bb:16:1b:a5:f2:3f:58:e3:9a:
                    bb:98:1e:4d:d7:36:03:41:59:ba:7a:cb:44:b7:3b:
                    ac:c0:a5:ab:e1:9a:4c:e7:b6:29:3c:71:3e:92:51:
                    5d:2b:c3:a7:f3:18:5d:b2:79:06:b1:6c:8b:a1:f0:
                    9d:c3:0c:3f:4e:5d:de:8d:99:97:54:8b:7d:2a:0e:
                    7c:2e:cb:8c:63:a5:9d:2b:e1:94:62:fa:4e:cd:40:
                    38:e8:68:4a:ba:34:a2:88:b2:07:2c:d3:a0:3c:a8:
                    6b:67:7e:5a:44:3e:dd:d9:60:89:32:2f:a4:5a:65:
                    79:71:e0:b2:a1:b9:c2:52:17:47:e9:1e:1d:40:b5:
                    ea:9e:31:b6:1c:5a:28:87:4b:b3:9d:bc:bb:c0:f3:
                    f0:49:df:23:61:ed:35:0f:71:08:1e:1a:05:6f:2d:
                    10:33
                Exponent: 65537 (0x10001)
        X509v3 extensions:
            X509v3 Subject Key Identifier: 
                67:F9:53:97:DA:51:66:34:D7:DC:FB:FA:37:77:EC:F4:D5:51:14:D0
            X509v3 Authority Key Identifier: 
                67:F9:53:97:DA:51:66:34:D7:DC:FB:FA:37:77:EC:F4:D5:51:14:D0
            X509v3 Basic Constraints: critical
                CA:TRUE
    Signature Algorithm: sha256WithRSAEncryption
    Signature Value:
        6b:77:87:c6:57:3a:f5:d6:8d:4c:a6:da:5f:b5:0e:3d:40:34:
        44:5b:33:99:3d:15:18:df:2f:9b:bf:a4:ad:cf:0d:c3:6e:d9:
        ad:26:38:11:c3:46:ed:7f:4a:29:28:4b:c5:85:ab:29:a3:5b:
        c3:da:2a:8e:55:43:f9:11:17:cf:38:dd:9b:d7:74:fa:27:4d:
        d3:c3:bd:88:e9:4a:6a:67:a1:6e:42:48:6d:bc:08:10:4d:d4:
        24:78:fe:0c:4f:9a:47:9c:32:18:7e:da:4a:40:31:5c:9a:5d:
        8d:e9:55:53:2a:6c:66:c6:c4:70:4a:88:2d:d5:8d:58:52:81:
        30:70:b5:b2:be:88:28:4b:1a:60:3c:08:80:b6:9d:f9:1b:b5:
        ed:ee:2c:82:e2:88:1f:3c:42:de:35:14:25:9c:14:74:a5:ee:
        09:a3:81:41:ee:f2:40:56:e1:43:32:d5:18:72:e8:1e:99:6d:
        c2:88:5f:b6:32:5c:de:04:c8:1c:53:85:47:23:ca:14:a7:7a:
        6b:c0:07:5a:4b:13:e4:f9:30:49:a9:29:3b:18:36:40:c1:2a:
        cf:c4:14:c2:06:ac:35:73:5a:70:77:a2:e6:b2:a1:1e:fb:d2:
        e6:b2:17:0d:d8:a0:d5:44:80:87:a0:3c:07:97:20:9e:1c:fc:
        17:f1:08:1b
-----BEGIN CERTIFICATE-----
MIIC/TCCAeWgAwIBAgIUbvfqTg+PIw7npqv3EMGcF6f+rqgwDQYJKoZIhvcNAQEL
BQAwDjEMMAoGA1UEAwwDZGIxMB4XDTI1MTExMjIwMzM0MVoXDTI2MTExMjIwMzM0
MVowDjEMMAoGA1UEAwwDZGIxMIIBIjANBgkqhkiG9w0BAQEFAAOCAQ8AMIIBCgKC
AQEAnGlrhKcPc7tBkDrlBi0z4I/cfKEca3pMtV2BDwFFU1XOz1WFqiGjOLgCWO8P
XKTrmg9ZdUUBgrAz9t99J8JPFEZwFU2LspzQhVlqtrZh0LZTj/vxiZnO7IBM9XQo
a1W7Fhul8j9Y45q7mB5N1zYDQVm6estEtzuswKWr4ZpM57YpPHE+klFdK8On8xhd
snkGsWyLofCdwww/Tl3ejZmXVIt9Kg58LsuMY6WdK+GUYvpOzUA46GhKujSiiLIH
LNOgPKhrZ35aRD7d2WCJMi+kWmV5ceCyobnCUhdH6R4dQLXqnjG2HFooh0uznby7
wPPwSd8jYe01D3EIHhoFby0QMwIDAQABo1MwUTAdBgNVHQ4EFgQUZ/lTl9pRZjTX
3Pv6N3fs9NVRFNAwHwYDVR0jBBgwFoAUZ/lTl9pRZjTX3Pv6N3fs9NVRFNAwDwYD
VR0TAQH/BAUwAwEB/zANBgkqhkiG9w0BAQsFAAOCAQEAa3eHxlc69daNTKbaX7UO
PUA0RFszmT0VGN8vm7+krc8Nw27ZrSY4EcNG7X9KKShLxYWrKaNbw9oqjlVD+REX
zzjdm9d0+idN08O9iOlKamehbkJIbbwIEE3UJHj+DE+aR5wyGH7aSkAxXJpdjelV
UypsZsbEcEqILdWNWFKBMHC1sr6IKEsaYDwIgLad+Ru17e4sguKIHzxC3jUUJZwU
dKXuCaOBQe7yQFbhQzLVGHLoHpltwohftjJc3gTIHFOFRyPKFKd6a8AHWksT5Pkw
SakpOxg2QMEqz8QUwgasNXNacHei5rKhHvvS5rIXDdig1USAh6A8B5cgnhz8F/EI
Gw==
-----END CERTIFICATE-----
