Certificate:
    Data:
        Version: 3 (0x2)
        Serial Number:
            20:0b:8d:f7:92:98:80:6f:2e:71:4d:0c:57:26:bd:82:f8:a5:74:b3
        Signature Algorithm: sha256WithRSAEncryption
        Issuer: CN=db2
        Validity
            Not Before: Nov 12 20:26:27 2025 GMT
            Not After : Nov 12 20:26:27 2026 GMT
        Subject: CN=db2
        Subject Public Key Info:
            Public Key Algorithm: rsaEncryption
                Public-Key: (2048 bit)
                Modulus:
                    00:d1:80:06:1c:c3:86:8b:25:ba:a3:eb:6c:7c:3d:
                    60:ed:df:76:45:d3:f2:3f:52:30:e1:07:ce:0b:6a:
                    fa:c7:f8:0d:d0:f5:a1:d2:e2:30:c2:9b:c1:c3:f0:
                    5b:a6:3d:ee:0f:7d:b8:66:e9:a8:3f:e3:88:fd:32:
                    2d:d7:8d:05:b4:a5:e2:fb:10:40:ce:fc:ba:6e:c7:
                    01:5a:92:64:0a:07:30:33:81:01:c3:ba:5b:85:e2:
                    f7:36:cc:89:e3:05:1e:6c:54:c7:61:94:7f:0b:af:
                    cb:ec:63:98:5e:81:0d:27:9c:53:eb:b6:28:48:ae:
                    8e:76:5d:c7:bb:82:ac:2c:24:f6:37:f9:3e:4a:cd:
                    2d:23:14:c0:6b:58:3f:4c:bb:68:73:b4:71:54:73:
                    35:fd:4e:88:04:6e:59:fa:bd:4d:29:ae:7d:1e:56:
                    f6:f8:6d:4c:ff:c8:cc:ff:22:0d:7d:cc:54:1b:1c:
                    e1:65:cf:63:7a:49:29:21:44:d3:52:4f:51:14:3c:
                    81:58:5a:c8:51:30:16:56:27:49:11:93:37:3a:89:
                    cb:61:34:6c:c0:e7:fc:b6:aa:89:5d:ce:12:f7:7f:
                    3f:8b:40:07:4c:61:e5:16:32:b2:47:3e:d7:ba:82:
                    67:50:76:00:c6:61:a4:cb:f1:34:76:99:5d:f8:0a:
                    50:73
                Exponent: 65537 (0x10001)
        X509v3 extensions:
            X509v3 Subject Key Identifier: 
                EA:AA:34:7A:55:AD:8A:46:CF:45:2B:45:6B:10:DE:22:43:DF:65:71
            X509v3 Authority Key Identifier: 
                EA:AA:34:7A:55:AD:8A:46:CF:45:2B:45:6B:10:DE:22:43:DF:65:71
            X509v3 Basic Constraints: critical
                CA:TRUE
    Signature Algorithm: sha256WithRSAEncryption
    Signature Value:
        65:6a:9b:60:e4:f9:47:c6:a9:46:a6:ac:1f:7a:87:19:b7:f9:
        05:1f:c2:3a:0d:36:fe:b4:ab:db:9c:c5:34:ab:cf:a1:30:a8:
        61:35:67:cd:28:a4:93:63:9c:e2:ee:48:d1:32:a1:dc:be:c6:
        07:fd:e8:cd:3d:1a:9d:2f:64:4d:ca:72:c2:5d:df:61:88:e4:
        2a:47:22:a7:35:b2:81:5c:a2:14:98:7f:b7:b8:d2:e3:26:68:
        39:97:a4:2b:b0:49:60:c1:18:71:9a:75:0f:54:b2:f0:7c:42:
        9e:da:23:ac:39:72:e0:b0:dc:f6:f6:8b:78:fa:e4:19:e6:b3:
        a4:98:99:bc:63:96:61:af:ef:c3:ab:78:8b:3c:50:59:20:a0:
        f3:6f:19:b5:a4:5a:25:9b:18:1d:85:54:c0:8c:be:cd:3c:b3:
        9e:58:24:7e:5d:ea:04:2f:ed:3d:6f:ca:55:a4:02:99:80:4b:
        24:bf:f4:63:00:51:3d:d2:81:92:fe:c6:18:81:5e:43:82:fe:
        d9:07:62:41:84:05:50:b1:89:b7:4d:69:24:c3:f5:91:43:71:
        bd:a0:59:59:91:7d:81:f9:15:7c:4b:5c:f9:a9:2f:76:8b:40:
        e1:dd:bf:52:2a:cc:ec:df:06:d4:12:18:ef:ab:15:e4:57:c3:
        42:b6:21:19
-----BEGIN CERTIFICATE-----
MIIC/TCCAeWgAwIBAgIUIAuN95KYgG8ucU0MVya9gvildLMwDQYJKoZIhvcNAQEL
BQAwDjEMMAoGA1UEAwwDZGIyMB4XDTI1MTExMjIwMjYyN1oXDTI2MTExMjIwMjYy
N1owDjEMMAoGA1UEAwwDZGIyMIIBIjANBgkqhkiG9w0BAQEFAAOCAQ8AMIIBCgKC
AQEA0YAGHMOGiyW6o+tsfD1g7d92RdPyP1Iw4QfOC2r6x/gN0PWh0uIwwpvBw/Bb
pj3uD324ZumoP+OI/TIt140FtKXi+xBAzvy6bscBWpJkCgcwM4EBw7pbheL3NsyJ
4wUebFTHYZR/C6/L7GOYXoENJ5xT67YoSK6Odl3Hu4KsLCT2N/k+Ss0tIxTAa1g/
TLtoc7RxVHM1/U6IBG5Z+r1NKa59Hlb2+G1M/8jM/yINfcxUGxzhZc9jekkpIUTT
Uk9RFDyBWFrIUTAWVidJEZM3OonLYTRswOf8tqqJXc4S938/i0AHTGHlFjKyRz7X
uoJnUHYAxmGky/E0dpld+ApQcwIDAQABo1MwUTAdBgNVHQ4EFgQU6qo0elWtikbP
RStFaxDeIkPfZXEwHwYDVR0jBBgwFoAU6qo0elWtikbPRStFaxDeIkPfZXEwDwYD
VR0TAQH/BAUwAwEB/zANBgkqhkiG9w0BAQsFAAOCAQEAZWqbYOT5R8apRqasH3qH
Gbf5BR/COg02/rSr25zFNKvPoTCoYTVnzSikk2Oc4u5I0TKh3L7GB/3ozT0anS9k
Tcpywl3fYYjkKkcipzWygVyiFJh/t7jS4yZoOZekK7BJYMEYcZp1D1Sy8HxCntoj
rDly4LDc9vaLePrkGeazpJiZvGOWYa/vw6t4izxQWSCg828ZtaRaJZsYHYVUwIy+
zTyznlgkfl3qBC/tPW/KVaQCmYBLJL/0YwBRPdKBkv7GGIFeQ4L+2QdiQYQFULGJ
t01pJMP1kUNxvaBZWZF9gfkVfEtc+akvdotA4d2/UirM7N8G1BIY76sV5FfDQrYh
GQ==
-----END CERTIFICATE-----
