Certificate:
    Data:
        Version: 3 (0x2)
        Serial Number:
            64:77:1e:c9:e6:b9:bc:8d:d1:37:ec:06:06:b3:ec:72:00:09:01:3b
        Signature Algorithm: sha256WithRSAEncryption
        Issuer: CN=db2
        Validity
            Not Before: Nov 13 16:11:50 2025 GMT
            Not After : Nov 13 16:11:50 2026 GMT
        Subject: CN=db2
        Subject Public Key Info:
            Public Key Algorithm: rsaEncryption
                Public-Key: (2048 bit)
                Modulus:
                    00:ab:c9:3a:73:df:5d:e3:d9:59:41:36:01:13:37:
                    6c:b4:54:0f:e0:41:6d:dc:77:29:2a:26:9c:2b:52:
                    d3:0a:89:09:7b:b8:2b:9b:f2:c0:43:8d:18:c8:3a:
                    1a:8d:c4:98:ca:6c:9e:b5:25:da:46:61:e4:93:7e:
                    1f:b5:9b:a3:53:28:de:39:ca:2f:21:93:f6:64:10:
                    e2:6a:b1:35:b7:c7:88:0d:bc:63:43:ba:5d:db:dc:
                    7f:29:d4:1b:fc:95:ad:eb:85:e3:3c:0b:13:4a:dd:
                    59:9a:cd:79:69:56:ed:5b:2b:3c:77:8f:36:6e:37:
                    89:34:5d:c8:6d:2c:73:38:36:27:e3:36:53:5d:4f:
                    d1:09:06:39:18:38:c6:59:a8:2e:50:fa:3c:5d:e9:
                    f7:23:b6:ab:fe:b3:27:d0:c7:5a:a0:ae:25:88:6b:
                    09:1f:2d:72:3f:45:41:1d:b1:9f:97:cd:c0:0f:d5:
                    02:d8:8e:d4:87:37:7b:23:9f:3f:52:d4:51:19:af:
                    0f:c2:5b:31:49:1d:16:d4:2e:dd:db:a9:7d:82:51:
                    a1:54:70:08:39:b5:78:4c:5d:99:2a:bc:1a:b4:91:
                    76:59:95:a6:c5:c7:7d:20:5b:21:d6:5d:82:9b:31:
                    d0:00:6a:7f:d3:9e:28:d8:c2:a7:81:1f:85:3c:ce:
                    b6:7b
                Exponent: 65537 (0x10001)
        X509v3 extensions:
            X509v3 Subject Key Identifier: 
                A0:F0:D0:A1:4F:0F:10:63:37:E1:7C:1C:FC:EC:88:F0:4B:49:04:33
            X509v3 Authority Key Identifier: 
                A0:F0:D0:A1:4F:0F:10:63:37:E1:7C:1C:FC:EC:88:F0:4B:49:04:33
            X509v3 Basic Constraints: critical
                CA:TRUE
    Signature Algorithm: sha256WithRSAEncryption
    Signature Value:
        53:c5:02:63:df:02:c8:cc:27:53:61:3a:54:c5:7d:f9:eb:0e:
        9a:6a:82:48:23:f9:b7:8c:e1:a3:e0:e5:ba:df:f2:a8:ca:b9:
        96:4f:d9:09:7f:28:ba:9d:8f:62:6d:ad:f7:c2:0f:27:a8:c6:
        bf:39:19:61:d3:07:7d:28:d2:4a:c9:40:db:08:9f:06:3e:5f:
        20:0e:15:1b:e7:27:2f:f9:99:67:68:6e:82:1d:28:43:b0:c3:
        8d:89:c1:78:6f:18:1c:a8:ac:7c:d2:c9:aa:57:bc:ed:b4:ad:
        5f:d9:3b:6c:59:9a:27:d2:c3:a6:35:cb:48:05:bc:4e:a5:4c:
        78:d5:ca:47:ee:35:43:d9:bf:89:4f:bc:1f:dd:fb:5f:db:99:
        b8:6a:76:66:be:1e:55:cd:d5:54:d3:a4:13:fb:ec:27:57:31:
        6b:c7:9e:78:54:8a:2d:a1:1b:f1:5b:4b:59:cf:b0:42:ea:3b:
        fd:19:ef:96:ae:41:4f:c2:d4:43:f1:d1:b6:e6:ad:b5:80:25:
        e8:64:b4:42:4d:e3:0a:0e:bf:fa:28:a9:77:d7:37:32:3c:94:
        7f:86:20:93:30:b3:01:3a:76:8f:0d:f2:10:64:0f:67:4e:98:
        98:8b:49:f7:c0:d2:2e:c2:7f:79:76:77:6b:2e:e4:11:d5:45:
        e2:c4:4f:dd
-----BEGIN CERTIFICATE-----
MIIC/TCCAeWgAwIBAgIUZHceyea5vI3RN+wGBrPscgAJATswDQYJKoZIhvcNAQEL
BQAwDjEMMAoGA1UEAwwDZGIyMB4XDTI1MTExMzE2MTE1MFoXDTI2MTExMzE2MTE1
MFowDjEMMAoGA1UEAwwDZGIyMIIBIjANBgkqhkiG9w0BAQEFAAOCAQ8AMIIBCgKC
AQEAq8k6c99d49lZQTYBEzdstFQP4EFt3HcpKiacK1LTCokJe7grm/LAQ40YyDoa
jcSYymyetSXaRmHkk34ftZujUyjeOcovIZP2ZBDiarE1t8eIDbxjQ7pd29x/KdQb
/JWt64XjPAsTSt1Zms15aVbtWys8d482bjeJNF3IbSxzODYn4zZTXU/RCQY5GDjG
WaguUPo8Xen3I7ar/rMn0MdaoK4liGsJHy1yP0VBHbGfl83AD9UC2I7Uhzd7I58/
UtRRGa8PwlsxSR0W1C7d26l9glGhVHAIObV4TF2ZKrwatJF2WZWmxcd9IFsh1l2C
mzHQAGp/054o2MKngR+FPM62ewIDAQABo1MwUTAdBgNVHQ4EFgQUoPDQoU8PEGM3
4Xwc/OyI8EtJBDMwHwYDVR0jBBgwFoAUoPDQoU8PEGM34Xwc/OyI8EtJBDMwDwYD
VR0TAQH/BAUwAwEB/zANBgkqhkiG9w0BAQsFAAOCAQEAU8UCY98CyMwnU2E6VMV9
+esOmmqCSCP5t4zho+Dlut/yqMq5lk/ZCX8oup2PYm2t98IPJ6jGvzkZYdMHfSjS
SslA2wifBj5fIA4VG+cnL/mZZ2hugh0oQ7DDjYnBeG8YHKisfNLJqle87bStX9k7
bFmaJ9LDpjXLSAW8TqVMeNXKR+41Q9m/iU+8H937X9uZuGp2Zr4eVc3VVNOkE/vs
J1cxa8eeeFSKLaEb8VtLWc+wQuo7/Rnvlq5BT8LUQ/HRtuattYAl6GS0Qk3jCg6/
+iipd9c3MjyUf4YgkzCzATp2jw3yEGQPZ06YmItJ98DSLsJ/eXZ3ay7kEdVF4sRP
3Q==
-----END CERTIFICATE-----
