Certificate:
    Data:
        Version: 3 (0x2)
        Serial Number:
            78:a9:12:59:19:15:78:c1:64:bd:b8:09:33:99:2a:fc:ee:21:db:ce
        Signature Algorithm: sha256WithRSAEncryption
        Issuer: CN=db2
        Validity
            Not Before: Nov 12 20:33:42 2025 GMT
            Not After : Nov 12 20:33:42 2026 GMT
        Subject: CN=db2
        Subject Public Key Info:
            Public Key Algorithm: rsaEncryption
                Public-Key: (2048 bit)
                Modulus:
                    00:94:4e:65:ab:df:69:de:06:7c:43:30:62:43:8d:
                    2d:17:ee:98:fc:62:f1:13:39:a2:63:d9:60:ae:df:
                    e6:33:e1:56:88:69:b2:92:3a:41:ba:86:7b:2f:7d:
                    4d:86:d5:49:3e:95:1f:76:97:be:8f:c1:b1:8c:6b:
                    e3:a5:58:6e:e5:1a:79:7e:4c:8e:37:2b:8f:09:8e:
                    35:4f:c0:ee:d8:ad:8d:e1:8b:2c:fb:24:bc:30:07:
                    df:f6:cd:b7:59:ba:52:f7:3a:8a:ce:16:e8:ba:9d:
                    9a:b0:c8:60:e5:c0:d1:30:93:ce:9c:77:6b:7a:fa:
                    4a:79:de:50:bc:75:8b:75:57:81:ab:4c:83:02:ad:
                    94:d8:69:16:09:5d:e4:3d:4c:f4:31:86:9b:95:ef:
                    19:b8:de:4d:25:ce:30:2f:92:54:4e:04:b2:5d:78:
                    af:51:d7:27:32:cf:11:f2:83:90:8c:dc:9f:f1:70:
                    15:2e:44:2a:e0:6b:01:77:52:00:ce:49:43:12:25:
                    30:82:03:a7:7b:3c:95:6f:c1:28:fa:af:71:26:1a:
                    8b:46:95:a4:b6:4b:cf:21:8e:c3:c9:bc:8d:cb:1c:
                    31:3c:f5:fc:a2:ce:67:46:7d:a1:34:82:60:21:dc:
                    19:3c:e3:87:b5:37:8c:a5:70:da:b0:9a:cd:46:37:
                    cc:b5
                Exponent: 65537 (0x10001)
        X509v3 extensions:
            X509v3 Subject Key Identifier: 
                6D:C3:B3:18:B9:3F:9E:00:09:14:56:A0:C0:6E:E6:72:AD:3E:6D:C8
            X509v3 Authority Key Identifier: 
                6D:C3:B3:18:B9:3F:9E:00:09:14:56:A0:C0:6E:E6:72:AD:3E:6D:C8
            X509v3 Basic Constraints: critical
                CA:TRUE
    Signature Algorithm: sha256WithRSAEncryption
    Signature Value:
        8c:cb:f5:c0:b8:4c:c7:fe:99:88:e0:05:22:bf:f8:90:b1:ab:
        2a:f7:df:1a:ea:98:10:bf:35:fe:56:75:a1:8e:ef:b2:f1:df:
        c9:4b:2c:ee:04:36:7f:94:0c:0e:35:d6:8c:0e:b9:f7:67:5c:
        c9:d5:b4:d3:13:16:56:81:a7:7b:fd:c8:95:84:5f:81:54:e0:
        ef:ab:e7:07:99:c9:4c:64:95:f4:9a:9c:c2:ea:d2:30:d0:6d:
        98:49:2a:5d:bd:c1:46:91:1e:d1:96:41:fd:3f:83:77:bd:41:
        72:25:68:7d:4c:d3:f6:ef:8c:1b:51:bb:ff:c0:e5:b8:bf:ed:
        f4:94:d2:de:1b:b2:d8:9e:d4:d0:65:72:05:d4:ef:65:6b:fc:
        05:f5:43:0b:14:fc:6b:b8:bf:05:39:5f:e9:7d:91:b8:94:a2:
        15:66:29:68:a2:34:02:ce:73:9c:d4:5c:5d:ad:a4:e6:c3:62:
        c0:d2:b8:79:2b:1c:8a:1b:56:8b:40:84:d5:05:61:ef:86:99:
        20:d2:93:63:4e:d9:a0:d8:4e:38:b2:cc:9d:b8:79:7d:0d:7e:
        4e:e8:58:39:31:df:5b:78:95:4a:a2:fa:8c:27:b8:6e:86:0a:
        a7:be:05:10:de:18:b8:2a:b9:d5:d0:55:25:ea:3f:f8:2f:a4:
        18:89:7b:65
-----BEGIN CERTIFICATE-----
MIIC/TCCAeWgAwIBAgIUeKkSWRkVeMFkvbgJM5kq/O4h284wDQYJKoZIhvcNAQEL
BQAwDjEMMAoGA1UEAwwDZGIyMB4XDTI1MTExMjIwMzM0MloXDTI2MTExMjIwMzM0
MlowDjEMMAoGA1UEAwwDZGIyMIIBIjANBgkqhkiG9w0BAQEFAAOCAQ8AMIIBCgKC
AQEAlE5lq99p3gZ8QzBiQ40tF+6Y/GLxEzmiY9lgrt/mM+FWiGmykjpBuoZ7L31N
htVJPpUfdpe+j8GxjGvjpVhu5Rp5fkyONyuPCY41T8Du2K2N4Yss+yS8MAff9s23
WbpS9zqKzhboup2asMhg5cDRMJPOnHdrevpKed5QvHWLdVeBq0yDAq2U2GkWCV3k
PUz0MYable8ZuN5NJc4wL5JUTgSyXXivUdcnMs8R8oOQjNyf8XAVLkQq4GsBd1IA
zklDEiUwggOnezyVb8Eo+q9xJhqLRpWktkvPIY7DybyNyxwxPPX8os5nRn2hNIJg
IdwZPOOHtTeMpXDasJrNRjfMtQIDAQABo1MwUTAdBgNVHQ4EFgQUbcOzGLk/ngAJ
FFagwG7mcq0+bcgwHwYDVR0jBBgwFoAUbcOzGLk/ngAJFFagwG7mcq0+bcgwDwYD
VR0TAQH/BAUwAwEB/zANBgkqhkiG9w0BAQsFAAOCAQEAjMv1wLhMx/6ZiOAFIr/4
kLGrKvffGuqYEL81/lZ1oY7vsvHfyUss7gQ2f5QMDjXWjA6592dcydW00xMWVoGn
e/3IlYRfgVTg76vnB5nJTGSV9JqcwurSMNBtmEkqXb3BRpEe0ZZB/T+Dd71BciVo
fUzT9u+MG1G7/8DluL/t9JTS3huy2J7U0GVyBdTvZWv8BfVDCxT8a7i/BTlf6X2R
uJSiFWYpaKI0As5znNRcXa2k5sNiwNK4eSscihtWi0CE1QVh74aZINKTY07ZoNhO
OLLMnbh5fQ1+TuhYOTHfW3iVSqL6jCe4boYKp74FEN4YuCq51dBVJeo/+C+kGIl7
ZQ==
-----END CERTIFICATE-----
